target datalayout = "e-m:e-p270:32:32-p271:32:32-p272:64:64-i64:64-i128:128-f80:128-n8:16:32:64-S128"
target triple = "x86_64-pc-linux-gnu"

%struct.subnet_length_entry_t = type { i64, i32, ptr }
%struct.sub_net_hashipv4 = type { i32, i8, ptr, [64 x i8] }

@addr_resolv_scope = internal global ptr null, align 8
@.str.54 = private unnamed_addr constant [2 x i8] c"r\00", align 1
@.str.55 = private unnamed_addr constant [3 x i8] c" \09\00", align 1
@.str.56 = private unnamed_addr constant [3 x i8] c"\0D\0A\00", align 1
@have_subnet_entry = internal global i8 0, align 1
@subnet_length_entries = internal global [32 x %struct.subnet_length_entry_t] zeroinitializer, align 16

; Function Attrs: null_pointer_is_valid sspstrong uwtable
define internal void @subnet_entry_set(i32 noundef %0, i8 noundef zeroext %1, ptr noundef %2) #3 {
  %4 = alloca i32, align 4
  %5 = alloca i8, align 1
  %6 = alloca ptr, align 8
  %7 = alloca ptr, align 8
  %8 = alloca ptr, align 8
  %9 = alloca i64, align 8
  %10 = alloca i32, align 4
  %11 = alloca i32, align 4
  %12 = alloca i32, align 4
  %13 = alloca ptr, align 8
  %14 = alloca i32, align 4
  store i32 %0, ptr %4, align 4
  store i8 %1, ptr %5, align 1
  store ptr %2, ptr %6, align 8
  call void @llvm.lifetime.start.p0(i64 8, ptr %7) #16
  call void @llvm.lifetime.start.p0(i64 8, ptr %8) #16
  call void @llvm.lifetime.start.p0(i64 8, ptr %9) #16
  br label %15

15:                                               ; preds = %3
  br label %16

16:                                               ; preds = %15
  br label %17

17:                                               ; preds = %16
  %18 = load i8, ptr %5, align 1
  %19 = zext i8 %18 to i32
  %20 = sub i32 %19, 1
  %21 = sext i32 %20 to i64
  %22 = getelementptr [32 x %struct.subnet_length_entry_t], ptr @subnet_length_entries, i64 0, i64 %21
  store ptr %22, ptr %7, align 8
  %23 = load ptr, ptr %7, align 8
  %24 = getelementptr inbounds nuw %struct.subnet_length_entry_t, ptr %23, i32 0, i32 1
  %25 = load i32, ptr %24, align 8
  %26 = load i32, ptr %4, align 4
  %27 = and i32 %26, %25
  store i32 %27, ptr %4, align 4
  call void @llvm.lifetime.start.p0(i64 4, ptr %10) #16
  call void @llvm.lifetime.start.p0(i64 4, ptr %11) #16
  %28 = load i32, ptr %4, align 4
  store i32 %28, ptr %11, align 4
  %29 = load i32, ptr %11, align 4
  %30 = call i1 @llvm.is.constant.i32(i32 %29)
  br i1 %30, label %31, label %47

31:                                               ; preds = %17
  %32 = load i32, ptr %11, align 4
  %33 = and i32 %32, 255
  %34 = shl i32 %33, 24
  %35 = load i32, ptr %11, align 4
  %36 = and i32 %35, 65280
  %37 = shl i32 %36, 8
  %38 = or i32 %34, %37
  %39 = load i32, ptr %11, align 4
  %40 = and i32 %39, 16711680
  %41 = lshr i32 %40, 8
  %42 = or i32 %38, %41
  %43 = load i32, ptr %11, align 4
  %44 = and i32 %43, -16777216
  %45 = lshr i32 %44, 24
  %46 = or i32 %42, %45
  store i32 %46, ptr %10, align 4
  br label %50

47:                                               ; preds = %17
  %48 = load i32, ptr %11, align 4
  %49 = call i32 asm "bswapl $0", "=r,0,~{dirflag},~{fpsr},~{flags}"(i32 %48) #20, !srcloc !65
  store i32 %49, ptr %10, align 4
  br label %50

50:                                               ; preds = %47, %31
  %51 = load i32, ptr %10, align 4
  store i32 %51, ptr %12, align 4
  call void @llvm.lifetime.end.p0(i64 4, ptr %11) #16
  call void @llvm.lifetime.end.p0(i64 4, ptr %10) #16
  %52 = load i32, ptr %12, align 4
  %53 = and i32 %52, 2047
  %54 = zext i32 %53 to i64
  store i64 %54, ptr %9, align 8
  %55 = load ptr, ptr %7, align 8
  %56 = getelementptr inbounds nuw %struct.subnet_length_entry_t, ptr %55, i32 0, i32 2
  %57 = load ptr, ptr %56, align 8
  %58 = icmp eq ptr null, %57
  br i1 %58, label %59, label %64

59:                                               ; preds = %50
  %60 = load ptr, ptr @addr_resolv_scope, align 8
  %61 = call noalias ptr @wmem_alloc0(ptr noundef %60, i64 noundef 16384) #19
  %62 = load ptr, ptr %7, align 8
  %63 = getelementptr inbounds nuw %struct.subnet_length_entry_t, ptr %62, i32 0, i32 2
  store ptr %61, ptr %63, align 8
  br label %64

64:                                               ; preds = %59, %50
  %65 = load ptr, ptr %7, align 8
  %66 = getelementptr inbounds nuw %struct.subnet_length_entry_t, ptr %65, i32 0, i32 2
  %67 = load ptr, ptr %66, align 8
  %68 = load i64, ptr %9, align 8
  %69 = getelementptr ptr, ptr %67, i64 %68
  %70 = load ptr, ptr %69, align 8
  store ptr %70, ptr %8, align 8
  %71 = icmp ne ptr null, %70
  br i1 %71, label %72, label %100

72:                                               ; preds = %64
  call void @llvm.lifetime.start.p0(i64 8, ptr %13) #16
  br label %73

73:                                               ; preds = %89, %72
  %74 = load ptr, ptr %8, align 8
  %75 = getelementptr inbounds nuw %struct.sub_net_hashipv4, ptr %74, i32 0, i32 2
  %76 = load ptr, ptr %75, align 8
  %77 = icmp ne ptr %76, null
  br i1 %77, label %78, label %90

78:                                               ; preds = %73
  %79 = load ptr, ptr %8, align 8
  %80 = getelementptr inbounds nuw %struct.sub_net_hashipv4, ptr %79, i32 0, i32 0
  %81 = load i32, ptr %80, align 8
  %82 = load i32, ptr %4, align 4
  %83 = icmp eq i32 %81, %82
  br i1 %83, label %84, label %85

84:                                               ; preds = %78
  store i32 1, ptr %14, align 4
  br label %97

85:                                               ; preds = %78
  %86 = load ptr, ptr %8, align 8
  %87 = getelementptr inbounds nuw %struct.sub_net_hashipv4, ptr %86, i32 0, i32 2
  %88 = load ptr, ptr %87, align 8
  store ptr %88, ptr %8, align 8
  br label %89

89:                                               ; preds = %85
  br label %73, !llvm.loop !66

90:                                               ; preds = %73
  %91 = load ptr, ptr @addr_resolv_scope, align 8
  %92 = call noalias ptr @wmem_alloc(ptr noundef %91, i64 noundef 80) #19
  store ptr %92, ptr %13, align 8
  %93 = load ptr, ptr %13, align 8
  %94 = load ptr, ptr %8, align 8
  %95 = getelementptr inbounds nuw %struct.sub_net_hashipv4, ptr %94, i32 0, i32 2
  store ptr %93, ptr %95, align 8
  %96 = load ptr, ptr %13, align 8
  store ptr %96, ptr %8, align 8
  store i32 0, ptr %14, align 4
  br label %97

97:                                               ; preds = %90, %84
  call void @llvm.lifetime.end.p0(i64 8, ptr %13) #16
  %98 = load i32, ptr %14, align 4
  switch i32 %98, label %119 [
    i32 0, label %99
  ]

99:                                               ; preds = %97
  br label %108

100:                                              ; preds = %64
  %101 = load ptr, ptr @addr_resolv_scope, align 8
  %102 = call noalias ptr @wmem_alloc(ptr noundef %101, i64 noundef 80) #19
  %103 = load ptr, ptr %7, align 8
  %104 = getelementptr inbounds nuw %struct.subnet_length_entry_t, ptr %103, i32 0, i32 2
  %105 = load ptr, ptr %104, align 8
  %106 = load i64, ptr %9, align 8
  %107 = getelementptr ptr, ptr %105, i64 %106
  store ptr %102, ptr %107, align 8
  store ptr %102, ptr %8, align 8
  br label %108

108:                                              ; preds = %100, %99
  %109 = load ptr, ptr %8, align 8
  %110 = getelementptr inbounds nuw %struct.sub_net_hashipv4, ptr %109, i32 0, i32 2
  store ptr null, ptr %110, align 8
  %111 = load i32, ptr %4, align 4
  %112 = load ptr, ptr %8, align 8
  %113 = getelementptr inbounds nuw %struct.sub_net_hashipv4, ptr %112, i32 0, i32 0
  store i32 %111, ptr %113, align 8
  %114 = load ptr, ptr %8, align 8
  %115 = getelementptr inbounds nuw %struct.sub_net_hashipv4, ptr %114, i32 0, i32 3
  %116 = getelementptr inbounds [64 x i8], ptr %115, i64 0, i64 0
  %117 = load ptr, ptr %6, align 8
  %118 = call i64 @g_strlcpy(ptr noundef %116, ptr noundef %117, i64 noundef 64)
  store i8 1, ptr @have_subnet_entry, align 1
  store i32 0, ptr %14, align 4
  br label %119

119:                                              ; preds = %108, %97
  call void @llvm.lifetime.end.p0(i64 8, ptr %9) #16
  call void @llvm.lifetime.end.p0(i64 8, ptr %8) #16
  call void @llvm.lifetime.end.p0(i64 8, ptr %7) #16
  %120 = load i32, ptr %14, align 4
  switch i32 %120, label %122 [
    i32 0, label %121
    i32 1, label %121
  ]

121:                                              ; preds = %119, %119
  ret void

122:                                              ; preds = %119
  unreachable
}

; Function Attrs: null_pointer_is_valid sspstrong uwtable
define zeroext i1 @str_to_ip(ptr noundef %0, ptr noundef %1) #3 {
  %3 = alloca ptr, align 8
  %4 = alloca ptr, align 8
  store ptr %0, ptr %3, align 8
  store ptr %1, ptr %4, align 8
  %5 = load ptr, ptr %3, align 8
  %6 = load ptr, ptr %4, align 8
  %7 = call zeroext i1 @ws_inet_pton4(ptr noundef %5, ptr noundef %6)
  ret i1 %7
}

; Function Attrs: null_pointer_is_valid sspstrong uwtable
define internal i32 @fgetline(ptr noundef %0, i32 noundef %1, ptr noundef %2) #3 {
  %4 = alloca i32, align 4
  %5 = alloca ptr, align 8
  %6 = alloca i32, align 4
  %7 = alloca ptr, align 8
  %8 = alloca i32, align 4
  store ptr %0, ptr %5, align 8
  store i32 %1, ptr %6, align 4
  store ptr %2, ptr %7, align 8
  %9 = load ptr, ptr %5, align 8
  %10 = load i32, ptr %6, align 4
  %11 = load ptr, ptr %7, align 8
  %12 = call ptr @fgets(ptr noundef %9, i32 noundef %10, ptr noundef %11)
  %13 = icmp ne ptr %12, null
  br i1 %13, label %14, label %23

14:                                               ; preds = %3
  call void @llvm.lifetime.start.p0(i64 4, ptr %8) #16
  %15 = load ptr, ptr %5, align 8
  %16 = call i64 @strcspn(ptr noundef %15, ptr noundef @.str.56) #17
  %17 = trunc i64 %16 to i32
  store i32 %17, ptr %8, align 4
  %18 = load ptr, ptr %5, align 8
  %19 = load i32, ptr %8, align 4
  %20 = sext i32 %19 to i64
  %21 = getelementptr i8, ptr %18, i64 %20
  store i8 0, ptr %21, align 1
  %22 = load i32, ptr %8, align 4
  store i32 %22, ptr %4, align 4
  call void @llvm.lifetime.end.p0(i64 4, ptr %8) #16
  br label %24

23:                                               ; preds = %3
  store i32 -1, ptr %4, align 4
  br label %24

24:                                               ; preds = %23, %14
  %25 = load i32, ptr %4, align 4
  ret i32 %25
}

; Function Attrs: null_pointer_is_valid sspstrong uwtable
define internal zeroext i1 @read_subnets_file(ptr noundef %0) #3 {
  %2 = alloca i1, align 1
  %3 = alloca ptr, align 8
  %4 = alloca ptr, align 8
  %5 = alloca [1024 x i8], align 16
  %6 = alloca ptr, align 8
  %7 = alloca ptr, align 8
  %8 = alloca i32, align 4
  %9 = alloca i8, align 1
  %10 = alloca i32, align 4
  store ptr %0, ptr %3, align 8
  call void @llvm.lifetime.start.p0(i64 8, ptr %4) #16
  call void @llvm.lifetime.start.p0(i64 1024, ptr %5) #16
  call void @llvm.lifetime.start.p0(i64 8, ptr %6) #16
  call void @llvm.lifetime.start.p0(i64 8, ptr %7) #16
  call void @llvm.lifetime.start.p0(i64 4, ptr %8) #16
  call void @llvm.lifetime.start.p0(i64 1, ptr %9) #16
  %11 = load ptr, ptr %3, align 8
  %12 = call noalias ptr @fopen(ptr noundef %11, ptr noundef @.str.54)
  store ptr %12, ptr %4, align 8
  %13 = icmp eq ptr %12, null
  br i1 %13, label %14, label %15

14:                                               ; preds = %1
  store i1 false, ptr %2, align 1
  store i32 1, ptr %10, align 4
  br label %68

15:                                               ; preds = %1
  br label %16

16:                                               ; preds = %61, %60, %56, %44, %37, %31, %15
  %17 = getelementptr inbounds [1024 x i8], ptr %5, i64 0, i64 0
  %18 = load ptr, ptr %4, align 8
  %19 = call i32 @fgetline(ptr noundef %17, i32 noundef 1024, ptr noundef %18)
  %20 = icmp sge i32 %19, 0
  br i1 %20, label %21, label %65

21:                                               ; preds = %16
  %22 = getelementptr inbounds [1024 x i8], ptr %5, i64 0, i64 0
  %23 = call ptr @strchr(ptr noundef %22, i32 noundef 35) #17
  store ptr %23, ptr %6, align 8
  %24 = icmp ne ptr %23, null
  br i1 %24, label %25, label %27

25:                                               ; preds = %21
  %26 = load ptr, ptr %6, align 8
  store i8 0, ptr %26, align 1
  br label %27

27:                                               ; preds = %25, %21
  %28 = getelementptr inbounds [1024 x i8], ptr %5, i64 0, i64 0
  %29 = call ptr @strtok(ptr noundef %28, ptr noundef @.str.55) #16
  store ptr %29, ptr %6, align 8
  %30 = icmp eq ptr %29, null
  br i1 %30, label %31, label %32

31:                                               ; preds = %27
  br label %16, !llvm.loop !64

32:                                               ; preds = %27
  %33 = load ptr, ptr %6, align 8
  %34 = call ptr @strchr(ptr noundef %33, i32 noundef 47) #17
  store ptr %34, ptr %7, align 8
  %35 = load ptr, ptr %7, align 8
  %36 = icmp eq ptr null, %35
  br i1 %36, label %37, label %38

37:                                               ; preds = %32
  br label %16, !llvm.loop !64

38:                                               ; preds = %32
  %39 = load ptr, ptr %7, align 8
  store i8 0, ptr %39, align 1
  %40 = load ptr, ptr %7, align 8
  %41 = getelementptr i8, ptr %40, i32 1
  store ptr %41, ptr %7, align 8
  %42 = load ptr, ptr %6, align 8
  %43 = call zeroext i1 @str_to_ip(ptr noundef %42, ptr noundef %8)
  br i1 %43, label %45, label %44

44:                                               ; preds = %38
  br label %16, !llvm.loop !64

45:                                               ; preds = %38
  %46 = load ptr, ptr %7, align 8
  %47 = call zeroext i1 @ws_strtou8(ptr noundef %46, ptr noundef null, ptr noundef %9)
  br i1 %47, label %48, label %56

48:                                               ; preds = %45
  %49 = load i8, ptr %9, align 1
  %50 = zext i8 %49 to i32
  %51 = icmp eq i32 %50, 0
  br i1 %51, label %56, label %52

52:                                               ; preds = %48
  %53 = load i8, ptr %9, align 1
  %54 = zext i8 %53 to i32
  %55 = icmp sgt i32 %54, 32
  br i1 %55, label %56, label %57

56:                                               ; preds = %52, %48, %45
  br label %16, !llvm.loop !64

57:                                               ; preds = %52
  %58 = call ptr @strtok(ptr noundef null, ptr noundef @.str.55) #16
  store ptr %58, ptr %6, align 8
  %59 = icmp eq ptr %58, null
  br i1 %59, label %60, label %61

60:                                               ; preds = %57
  br label %16, !llvm.loop !64

61:                                               ; preds = %57
  %62 = load i32, ptr %8, align 4
  %63 = load i8, ptr %9, align 1
  %64 = load ptr, ptr %6, align 8
  call void @subnet_entry_set(i32 noundef %62, i8 noundef zeroext %63, ptr noundef %64)
  br label %16, !llvm.loop !64

65:                                               ; preds = %16
  %66 = load ptr, ptr %4, align 8
  %67 = call i32 @fclose(ptr noundef %66)
  store i1 true, ptr %2, align 1
  store i32 1, ptr %10, align 4
  br label %68

68:                                               ; preds = %65, %14
  call void @llvm.lifetime.end.p0(i64 1, ptr %9) #16
  call void @llvm.lifetime.end.p0(i64 4, ptr %8) #16
  call void @llvm.lifetime.end.p0(i64 8, ptr %7) #16
  call void @llvm.lifetime.end.p0(i64 8, ptr %6) #16
  call void @llvm.lifetime.end.p0(i64 1024, ptr %5) #16
  call void @llvm.lifetime.end.p0(i64 8, ptr %4) #16
  %69 = load i1, ptr %2, align 1
  ret i1 %69
}