; Function Attrs: null_pointer_is_valid sspstrong uwtable
define internal fastcc noundef zeroext i1 @read_subnets_file(ptr noundef readonly captures(none) %0) unnamed_addr #3 {
  %2 = alloca [1024 x i8], align 16
  %3 = alloca i32, align 4
  %4 = alloca i8, align 1
  call void @llvm.lifetime.start.p0(i64 1024, ptr nonnull %2) #24
  call void @llvm.lifetime.start.p0(i64 4, ptr nonnull %3) #24
  call void @llvm.lifetime.start.p0(i64 1, ptr nonnull %4) #24
  %5 = tail call noalias ptr @fopen(ptr noundef %0, ptr noundef nonnull @.str.54)
  %6 = icmp ne ptr %5, null
  br i1 %6, label %.preheader, label %74

.preheader:                                       ; preds = %1
  %7 = call ptr @fgets(ptr noundef nonnull %2, i32 noundef 1024, ptr noundef nonnull %5)
  %.not.i26 = icmp eq ptr %7, null
  br i1 %.not.i26, label %fgetline.exit.thread, label %fgetline.exit

fgetline.exit:                                    ; preds = %.preheader, %.backedge
  %8 = call i64 @strcspn(ptr noundef nonnull %2, ptr noundef nonnull @.str.56) #28
  %sext.i = shl i64 %8, 32
  %9 = ashr exact i64 %sext.i, 32
  %10 = getelementptr i8, ptr %2, i64 %9
  store i8 0, ptr %10, align 1
  %11 = and i64 %8, 2147483648
  %12 = icmp eq i64 %11, 0
  br i1 %12, label %13, label %fgetline.exit.thread

13:                                               ; preds = %fgetline.exit
  %14 = call ptr @strchr(ptr noundef nonnull dereferenceable(1) %2, i32 noundef 35) #28
  %.not21 = icmp eq ptr %14, null
  br i1 %.not21, label %16, label %15

15:                                               ; preds = %13
  store i8 0, ptr %14, align 1
  br label %16

16:                                               ; preds = %15, %13
  %17 = call ptr @strtok(ptr noundef nonnull %2, ptr noundef nonnull @.str.55) #24
  %18 = icmp eq ptr %17, null
  br i1 %18, label %.backedge, label %19

19:                                               ; preds = %16
  %20 = call ptr @strchr(ptr noundef nonnull dereferenceable(1) %17, i32 noundef 47) #28
  %21 = icmp eq ptr %20, null
  br i1 %21, label %.backedge, label %22

22:                                               ; preds = %19
  store i8 0, ptr %20, align 1
  %23 = call zeroext i1 @ws_inet_pton4(ptr noundef nonnull %17, ptr noundef nonnull %3)
  br i1 %23, label %24, label %.backedge

24:                                               ; preds = %22
  %25 = getelementptr i8, ptr %20, i64 1
  %26 = call zeroext i1 @ws_strtou8(ptr noundef %25, ptr noundef null, ptr noundef nonnull %4)
  %27 = load i8, ptr %4, align 1
  %28 = add i8 %27, -1
  %29 = icmp ult i8 %28, 32
  %or.cond5.not = select i1 %26, i1 %29, i1 false
  br i1 %or.cond5.not, label %30, label %.backedge

30:                                               ; preds = %24
  %31 = call ptr @strtok(ptr noundef null, ptr noundef nonnull @.str.55) #24
  %32 = icmp eq ptr %31, null
  br i1 %32, label %.backedge, label %33

33:                                               ; preds = %30
  %34 = load i32, ptr %3, align 4
  %35 = load i8, ptr %4, align 1
  %36 = zext i8 %35 to i64
  %37 = add nsw i64 %36, -1
  %38 = getelementptr [32 x %struct.subnet_length_entry_t], ptr @subnet_length_entries, i64 0, i64 %37
  %39 = getelementptr inbounds nuw i8, ptr %38, i64 8
  %40 = load i32, ptr %39, align 8
  %41 = and i32 %40, %34
  %42 = call i32 asm "bswapl $0", "=r,0,~{dirflag},~{fpsr},~{flags}"(i32 %41) #27, !srcloc !70
  %43 = and i32 %42, 2047
  %44 = zext nneg i32 %43 to i64
  %45 = getelementptr inbounds nuw i8, ptr %38, i64 16
  %46 = load ptr, ptr %45, align 8
  %47 = icmp eq ptr %46, null
  br i1 %47, label %48, label %51

48:                                               ; preds = %33
  %49 = load ptr, ptr @addr_resolv_scope, align 8
  %50 = call noalias dereferenceable_or_null(16384) ptr @wmem_alloc0(ptr noundef %49, i64 noundef 16384) #26
  store ptr %50, ptr %45, align 8
  br label %51

51:                                               ; preds = %48, %33
  %52 = phi ptr [ %50, %48 ], [ %46, %33 ]
  %53 = getelementptr ptr, ptr %52, i64 %44
  %54 = load ptr, ptr %53, align 8
  %.not.i23 = icmp eq ptr %54, null
  br i1 %.not.i23, label %63, label %.preheader.i

.preheader.i:                                     ; preds = %51, %57
  %.030.i = phi ptr [ %56, %57 ], [ %54, %51 ]
  %55 = getelementptr inbounds nuw i8, ptr %.030.i, i64 8
  %56 = load ptr, ptr %55, align 8
  %.not34.i = icmp eq ptr %56, null
  br i1 %.not34.i, label %.thread.i, label %57

57:                                               ; preds = %.preheader.i
  %58 = load i32, ptr %.030.i, align 8
  %59 = icmp eq i32 %58, %41
  br i1 %59, label %.backedge, label %.preheader.i, !llvm.loop !71

.thread.i:                                        ; preds = %.preheader.i
  %60 = getelementptr inbounds nuw i8, ptr %.030.i, i64 8
  %61 = load ptr, ptr @addr_resolv_scope, align 8
  %62 = call noalias dereferenceable_or_null(80) ptr @wmem_alloc(ptr noundef %61, i64 noundef 80) #26
  store ptr %62, ptr %60, align 8
  br label %68

63:                                               ; preds = %51
  %64 = load ptr, ptr @addr_resolv_scope, align 8
  %65 = call noalias dereferenceable_or_null(80) ptr @wmem_alloc(ptr noundef %64, i64 noundef 80) #26
  %66 = load ptr, ptr %45, align 8
  %67 = getelementptr ptr, ptr %66, i64 %44
  store ptr %65, ptr %67, align 8
  br label %68

68:                                               ; preds = %63, %.thread.i
  %.2.i = phi ptr [ %65, %63 ], [ %62, %.thread.i ]
  %69 = getelementptr inbounds nuw i8, ptr %.2.i, i64 8
  store ptr null, ptr %69, align 8
  store i32 %41, ptr %.2.i, align 8
  %70 = getelementptr inbounds nuw i8, ptr %.2.i, i64 16
  %71 = call i64 @g_strlcpy(ptr noundef nonnull %70, ptr noundef nonnull %31, i64 noundef 64)
  store i1 true, ptr @have_subnet_entry, align 1
  br label %.backedge

.backedge:                                        ; preds = %57, %68, %16, %19, %22, %24, %30
  %72 = call ptr @fgets(ptr noundef nonnull %2, i32 noundef 1024, ptr noundef nonnull %5)
  %.not.i = icmp eq ptr %72, null
  br i1 %.not.i, label %fgetline.exit.thread, label %fgetline.exit, !llvm.loop !72

fgetline.exit.thread:                             ; preds = %fgetline.exit, %.backedge, %.preheader
  %73 = call i32 @fclose(ptr noundef nonnull %5)
  br label %74

74:                                               ; preds = %1, %fgetline.exit.thread
  call void @llvm.lifetime.end.p0(i64 1, ptr nonnull %4) #24
  call void @llvm.lifetime.end.p0(i64 4, ptr nonnull %3) #24
  call void @llvm.lifetime.end.p0(i64 1024, ptr nonnull %2) #24
  ret i1 %6
}